; Function Attrs: mustprogress uwtable
define internal fastcc void @_ZN5Yosys5RTLILL11unescape_idB5cxx11ERKNS0_8IdStringE(ptr dead_on_unwind noalias writable align 8 %0, i32 %.0.val) unnamed_addr #4 personality ptr @__gxx_personality_v0 {
  %2 = alloca %"class.std::allocator.0", align 1
  %3 = alloca %"class.std::__cxx11::basic_string", align 8
  call void @llvm.lifetime.start.p0(i64 1, ptr nonnull %2)
  %4 = sext i32 %.0.val to i64
  %5 = load ptr, ptr getelementptr inbounds (%"class.std::vector.426", ptr @_ZN5Yosys5RTLIL8IdString18global_id_storage_E, i64 0, i32 0, i32 0, i32 0, i32 1), align 8, !noalias !285
  %6 = load ptr, ptr @_ZN5Yosys5RTLIL8IdString18global_id_storage_E, align 8, !noalias !285
  %7 = ptrtoint ptr %5 to i64
  %8 = ptrtoint ptr %6 to i64
  %9 = sub i64 %7, %8
  %10 = ashr exact i64 %9, 3
  %.not.i.i.i = icmp ugt i64 %10, %4
  br i1 %.not.i.i.i, label %_ZNSt6vectorIPcSaIS0_EE2atEm.exit.i, label %11

11:                                               ; preds = %1
  tail call void (ptr, ...) @_ZSt24__throw_out_of_range_fmtPKcz(ptr noundef nonnull @.str.150, i64 noundef %4, i64 noundef %10) #34, !noalias !285
  unreachable

_ZNSt6vectorIPcSaIS0_EE2atEm.exit.i:              ; preds = %1
  %12 = getelementptr inbounds ptr, ptr %6, i64 %4
  %13 = load ptr, ptr %12, align 8, !noalias !285
  call void @_ZNSaIcEC1Ev(ptr noundef nonnull align 1 dereferenceable(1) %2) #31, !noalias !285
  invoke void @_ZNSt7__cxx1112basic_stringIcSt11char_traitsIcESaIcEEC1EPKcRKS3_(ptr noundef nonnull align 8 dereferenceable(32) %3, ptr noundef %13, ptr noundef nonnull align 1 dereferenceable(1) %2)
          to label %_ZNK5Yosys5RTLIL8IdString3strB5cxx11Ev.exit unwind label %14

common.resume:                                    ; preds = %17, %14
  %common.resume.op = phi { ptr, i32 } [ %15, %14 ], [ %18, %17 ]
  resume { ptr, i32 } %common.resume.op

14:                                               ; preds = %_ZNSt6vectorIPcSaIS0_EE2atEm.exit.i
  %15 = landingpad { ptr, i32 }
          cleanup
  call void @_ZNSaIcED1Ev(ptr noundef nonnull align 1 dereferenceable(1) %2) #31
  br label %common.resume

_ZNK5Yosys5RTLIL8IdString3strB5cxx11Ev.exit:      ; preds = %_ZNSt6vectorIPcSaIS0_EE2atEm.exit.i
  call void @_ZNSaIcED1Ev(ptr noundef nonnull align 1 dereferenceable(1) %2) #31
  call void @llvm.lifetime.end.p0(i64 1, ptr nonnull %2)
  invoke fastcc void @_ZN5Yosys5RTLILL11unescape_idERKNSt7__cxx1112basic_stringIcSt11char_traitsIcESaIcEEE(ptr dead_on_unwind noalias writable align 8 %0, ptr noundef nonnull align 8 dereferenceable(32) %3)
          to label %16 unwind label %17

16:                                               ; preds = %_ZNK5Yosys5RTLIL8IdString3strB5cxx11Ev.exit
  call void @_ZNSt7__cxx1112basic_stringIcSt11char_traitsIcESaIcEED1Ev(ptr noundef nonnull align 8 dereferenceable(32) %3) #31
  ret void

17:                                               ; preds = %_ZNK5Yosys5RTLIL8IdString3strB5cxx11Ev.exit
  %18 = landingpad { ptr, i32 }
          cleanup
  call void @_ZNSt7__cxx1112basic_stringIcSt11char_traitsIcESaIcEED1Ev(ptr noundef nonnull align 8 dereferenceable(32) %3) #31
  br label %common.resume
}